target datalayout = "e-m:e-p270:32:32-p271:32:32-p272:64:64-i64:64-i128:128-f80:128-n8:16:32:64-S128"
target triple = "x86_64-pc-linux-gnu"

%struct.quic_demux_st = type { ptr, i64, i64, i64, ptr, ptr, ptr, ptr, %struct.ossl_list_st_urxe, %struct.ossl_list_st_urxe, i8 }
%struct.ossl_list_st_urxe = type { ptr, ptr, i64 }

; Function Attrs: nounwind uwtable
define i32 @ossl_quic_demux_set_mtu(ptr noundef %0, i32 noundef %1) #0 {
  %3 = alloca i32, align 4
  %4 = alloca ptr, align 8
  %5 = alloca i32, align 4
  store ptr %0, ptr %4, align 8, !tbaa !11
  store i32 %1, ptr %5, align 4, !tbaa !27
  %6 = load i32, ptr %5, align 4, !tbaa !27
  %7 = icmp ult i32 %6, 1200
  br i1 %7, label %8, label %9

8:                                                ; preds = %2
  store i32 0, ptr %3, align 4
  br label %14

9:                                                ; preds = %2
  %10 = load i32, ptr %5, align 4, !tbaa !27
  %11 = zext i32 %10 to i64
  %12 = load ptr, ptr %4, align 8, !tbaa !11
  %13 = getelementptr inbounds nuw %struct.quic_demux_st, ptr %12, i32 0, i32 2
  store i64 %11, ptr %13, align 8, !tbaa !18
  store i32 1, ptr %3, align 4
  br label %14

14:                                               ; preds = %9, %8
  %15 = load i32, ptr %3, align 4
  ret i32 %15
}

; Function Attrs: nounwind uwtable
define void @ossl_quic_demux_set_bio(ptr noundef %0, ptr noundef %1) #0 {
  %3 = alloca ptr, align 8
  %4 = alloca ptr, align 8
  %5 = alloca i32, align 4
  store ptr %0, ptr %3, align 8, !tbaa !11
  store ptr %1, ptr %4, align 8, !tbaa !3
  call void @llvm.lifetime.start.p0(i64 4, ptr %5) #7
  %6 = load ptr, ptr %4, align 8, !tbaa !3
  %7 = load ptr, ptr %3, align 8, !tbaa !11
  %8 = getelementptr inbounds nuw %struct.quic_demux_st, ptr %7, i32 0, i32 0
  store ptr %6, ptr %8, align 8, !tbaa !13
  %9 = load ptr, ptr %4, align 8, !tbaa !3
  %10 = icmp ne ptr %9, null
  br i1 %10, label %11, label %22

11:                                               ; preds = %2
  %12 = load ptr, ptr %4, align 8, !tbaa !3
  %13 = call i64 @BIO_ctrl(ptr noundef %12, i32 noundef 41, i64 noundef 0, ptr noundef null)
  %14 = trunc i64 %13 to i32
  store i32 %14, ptr %5, align 4, !tbaa !27
  %15 = load i32, ptr %5, align 4, !tbaa !27
  %16 = icmp uge i32 %15, 1200
  br i1 %16, label %17, label %21

17:                                               ; preds = %11
  %18 = load ptr, ptr %3, align 8, !tbaa !11
  %19 = load i32, ptr %5, align 4, !tbaa !27
  %20 = call i32 @ossl_quic_demux_set_mtu(ptr noundef %18, i32 noundef %19)
  br label %21

21:                                               ; preds = %17, %11
  br label %22

22:                                               ; preds = %21, %2
  call void @llvm.lifetime.end.p0(i64 4, ptr %5) #7
  ret void
}