; Function Attrs: nounwind uwtable
define void @ossl_quic_demux_set_bio(ptr noundef writeonly captures(none) initializes((0, 8)) %0, ptr noundef %1) local_unnamed_addr #0 {
  store ptr %1, ptr %0, align 8, !tbaa !3
  %.not = icmp eq ptr %1, null
  br i1 %.not, label %9, label %3

3:                                                ; preds = %2
  %4 = tail call i64 @BIO_ctrl(ptr noundef nonnull %1, i32 noundef 41, i64 noundef 0, ptr noundef null) #8
  %5 = trunc i64 %4 to i32
  %6 = icmp ugt i32 %5, 1199
  br i1 %6, label %ossl_quic_demux_set_mtu.exit, label %9

ossl_quic_demux_set_mtu.exit:                     ; preds = %3
  %7 = and i64 %4, 4294967295
  %8 = getelementptr inbounds nuw i8, ptr %0, i64 16
  store i64 %7, ptr %8, align 8, !tbaa !13
  br label %9

9:                                                ; preds = %3, %ossl_quic_demux_set_mtu.exit, %2
  ret void
}